target datalayout = "e-m:e-p270:32:32-p271:32:32-p272:64:64-i64:64-i128:128-f80:128-n8:16:32:64-S128"
target triple = "x86_64-pc-linux-gnu"

%struct.dt_pthread_mutex_t = type { %union.pthread_mutex_t }
%union.pthread_mutex_t = type { %struct.__pthread_mutex_s }
%struct.__pthread_mutex_s = type { i32, i32, i32, i32, i32, i16, i16, %struct.__pthread_internal_list }
%struct.__pthread_internal_list = type { ptr, ptr }
%struct.dt_iop_module_so_t = type { %struct.dt_action_t, ptr, ptr, ptr, ptr, ptr, ptr, ptr, ptr, ptr, ptr, ptr, ptr, ptr, ptr, ptr, ptr, ptr, ptr, ptr, ptr, ptr, ptr, ptr, ptr, ptr, ptr, ptr, ptr, ptr, ptr, ptr, ptr, ptr, ptr, ptr, ptr, ptr, ptr, ptr, ptr, ptr, ptr, ptr, ptr, ptr, ptr, ptr, ptr, ptr, ptr, ptr, ptr, ptr, ptr, ptr, ptr, [20 x i8], ptr, i32, ptr, i32, i32 }
%struct.dt_action_t = type { i32, ptr, ptr, ptr, ptr, ptr }
%struct.dt_iop_module_t = type { i32, ptr, ptr, ptr, ptr, ptr, ptr, ptr, ptr, ptr, ptr, ptr, ptr, ptr, ptr, ptr, ptr, ptr, ptr, ptr, ptr, ptr, ptr, ptr, ptr, ptr, ptr, ptr, ptr, ptr, ptr, ptr, ptr, ptr, ptr, ptr, ptr, ptr, ptr, ptr, ptr, ptr, ptr, ptr, ptr, ptr, ptr, ptr, ptr, ptr, ptr, ptr, ptr, ptr, ptr, ptr, ptr, [20 x i8], i32, i32, i32, i32, i32, i32, i32, [8 x i8], [4 x float], [4 x float], [4 x float], [4 x float], [4 x float], [4 x float], ptr, %struct.dt_dev_histogram_stats_t, [4 x i32], i32, i32, ptr, i32, i32, ptr, ptr, i32, ptr, %struct.dt_pthread_mutex_t, ptr, ptr, ptr, ptr, %struct.anon.4, ptr, ptr, ptr, ptr, ptr, ptr, ptr, i32, ptr, ptr, ptr, ptr, ptr, ptr, ptr, i32, ptr, i32, [128 x i8], i32, ptr, ptr, i32, [12 x i8] }
%struct.dt_dev_histogram_stats_t = type { i32, i64, i32, i32 }
%struct.anon.4 = type { %struct.anon.5, %struct.anon.6 }
%struct.anon.5 = type { ptr, ptr }
%struct.anon.6 = type { ptr, i32 }

@.str.149 = private unnamed_addr constant [11 x i8] c"new preset\00", align 1

; Function Attrs: nounwind uwtable
define internal void @_menuitem_new_preset(ptr noundef %0, ptr noundef %1) #0 {
  %3 = alloca ptr, align 8
  %4 = alloca ptr, align 8
  store ptr %0, ptr %3, align 8, !tbaa !191
  store ptr %1, ptr %4, align 8, !tbaa !83
  %5 = call ptr @dcgettext(ptr noundef null, ptr noundef @.str.149, i32 noundef 5) #11
  %6 = load ptr, ptr %4, align 8, !tbaa !83
  %7 = getelementptr inbounds nuw %struct.dt_iop_module_t, ptr %6, i32 0, i32 57
  %8 = getelementptr inbounds [20 x i8], ptr %7, i64 0, i64 0
  %9 = load ptr, ptr %4, align 8, !tbaa !83
  %10 = getelementptr inbounds nuw %struct.dt_iop_module_t, ptr %9, i32 0, i32 1
  %11 = load ptr, ptr %10, align 8, !tbaa !97
  %12 = call i32 (...) %11()
  call void @dt_lib_presets_remove(ptr noundef %5, ptr noundef %8, i32 noundef %12)
  %13 = load ptr, ptr %4, align 8, !tbaa !83
  %14 = getelementptr inbounds nuw %struct.dt_iop_module_t, ptr %13, i32 0, i32 106
  %15 = load ptr, ptr %14, align 16, !tbaa !152
  %16 = getelementptr inbounds nuw %struct.dt_iop_module_so_t, ptr %15, i32 0, i32 0
  %17 = call ptr @dcgettext(ptr noundef null, ptr noundef @.str.149, i32 noundef 5) #11
  call void @dt_action_define_preset(ptr noundef %16, ptr noundef %17)
  %18 = call ptr @dcgettext(ptr noundef null, ptr noundef @.str.149, i32 noundef 5) #11
  %19 = load ptr, ptr %4, align 8, !tbaa !83
  call void @_edit_preset(ptr noundef %18, ptr noundef %19)
  ret void
}