; Function Attrs: nounwind uwtable
define internal void @_menuitem_new_preset(ptr readnone captures(none) %0, ptr noundef %1) #0 {
  %3 = tail call ptr @dcgettext(ptr noundef null, ptr noundef nonnull @.str.149, i32 noundef 5) #16
  %4 = getelementptr inbounds nuw i8, ptr %1, i64 456
  %5 = getelementptr inbounds nuw i8, ptr %1, i64 8
  %6 = load ptr, ptr %5, align 8, !tbaa !72
  %7 = tail call i32 (...) %6() #16
  tail call void @dt_lib_presets_remove(ptr noundef %3, ptr noundef nonnull %4, i32 noundef %7) #16
  %8 = getelementptr inbounds nuw i8, ptr %1, i64 944
  %9 = load ptr, ptr %8, align 16, !tbaa !127
  %10 = tail call ptr @dcgettext(ptr noundef null, ptr noundef nonnull @.str.149, i32 noundef 5) #16
  tail call void @dt_action_define_preset(ptr noundef %9, ptr noundef %10) #16
  %11 = tail call ptr @dcgettext(ptr noundef null, ptr noundef nonnull @.str.149, i32 noundef 5) #16
  tail call fastcc void @_edit_preset(ptr noundef %11, ptr noundef %1)
  ret void
}